; Function Attrs: nounwind uwtable
define ptr @l_Lean_Core_getMaxHeartbeats(ptr noundef %0) local_unnamed_addr #1 {
  %2 = load ptr, ptr @l_Lean_Core_getMaxHeartbeats___closed__1, align 8, !tbaa !9
  %3 = tail call ptr @l_Lean_Option_get___at_Lean_profiler_threshold_getSecs___spec__1(ptr noundef %0, ptr noundef %2) #7
  %4 = ptrtoint ptr %3 to i64
  %5 = and i64 %4, 1
  %.not = icmp eq i64 %5, 0
  br i1 %.not, label %18, label %6, !prof !14

6:                                                ; preds = %1
  %7 = lshr i64 %4, 1
  %8 = icmp ult ptr %3, inttoptr (i64 2 to ptr)
  br i1 %8, label %lean_dec.exit, label %9

9:                                                ; preds = %6
  %mul.i = tail call { i64, i1 } @llvm.umul.with.overflow.i64(i64 %7, i64 1000)
  %mul.val.i = extractvalue { i64, i1 } %mul.i, 0
  %10 = icmp sgt i64 %mul.val.i, -1
  br i1 %10, label %11, label %16

11:                                               ; preds = %9
  %mul.ov.i = extractvalue { i64, i1 } %mul.i, 1
  br i1 %mul.ov.i, label %16, label %12

12:                                               ; preds = %11
  %13 = shl nuw i64 %mul.val.i, 1
  %14 = or disjoint i64 %13, 1
  %15 = inttoptr i64 %14 to ptr
  br label %lean_dec.exit

16:                                               ; preds = %11, %9
  %17 = tail call ptr @lean_nat_overflow_mul(i64 noundef %7, i64 noundef 1000) #7
  br label %lean_dec.exit

18:                                               ; preds = %1
  %19 = tail call ptr @lean_nat_big_mul(ptr noundef %3, ptr noundef nonnull inttoptr (i64 2001 to ptr)) #7
  %20 = load i32, ptr %3, align 4, !tbaa !4
  %21 = icmp sgt i32 %20, 1
  br i1 %21, label %22, label %24, !prof !11

22:                                               ; preds = %18
  %23 = add nsw i32 %20, -1
  store i32 %23, ptr %3, align 4, !tbaa !4
  br label %lean_dec.exit

24:                                               ; preds = %18
  %.not.i = icmp eq i32 %20, 0
  br i1 %.not.i, label %lean_dec.exit, label %25

25:                                               ; preds = %24
  tail call void @lean_dec_ref_cold(ptr noundef nonnull %3) #7
  br label %lean_dec.exit

lean_dec.exit:                                    ; preds = %16, %12, %6, %25, %24, %22
  %.2.i7 = phi ptr [ %19, %22 ], [ %19, %24 ], [ %19, %25 ], [ %17, %16 ], [ %15, %12 ], [ %3, %6 ]
  ret ptr %.2.i7
}